; ModuleID = '27/133.c'
source_filename = "27/133.c"
target datalayout = "e-m:e-p270:32:32-p271:32:32-p272:64:64-i64:64-f80:128-n8:16:32:64-S128"
target triple = "x86_64-pc-linux-gnu"

@.str = private unnamed_addr constant [3 x i8] c"%d\00", align 1
@.str.1 = private unnamed_addr constant [12 x i8] c"%lf %lf %lf\00", align 1
@.str.2 = private unnamed_addr constant [19 x i8] c"x1=%.5lf;x2=%.5lf\0A\00", align 1
@.str.3 = private unnamed_addr constant [13 x i8] c"x1=x2=%.5lf\0A\00", align 1
@.str.4 = private unnamed_addr constant [33 x i8] c"x1=%.5lf+%.5lfi;x2=%.5lf-%.5lfi\0A\00", align 1

; Function Attrs: noinline nounwind uwtable
define dso_local i32 @main() #0 {
  %1 = alloca i32, align 4
  %2 = alloca i32, align 4
  %3 = alloca double, align 8
  %4 = alloca double, align 8
  %5 = alloca double, align 8
  %6 = alloca double, align 8
  %7 = alloca double, align 8
  %8 = alloca double, align 8
  %9 = alloca double, align 8
  store i32 0, i32* %1, align 4
  %10 = call i32 (i8*, ...) @__isoc99_scanf(i8* getelementptr inbounds ([3 x i8], [3 x i8]* @.str, i64 0, i64 0), i32* %2)
  br label %11

11:                                               ; preds = %129, %0
  %12 = load i32, i32* %2, align 4
  %13 = add nsw i32 %12, -1
  store i32 %13, i32* %2, align 4
  %14 = icmp ne i32 %12, 0
  br i1 %14, label %15, label %130

15:                                               ; preds = %11
  %16 = call i32 (i8*, ...) @__isoc99_scanf(i8* getelementptr inbounds ([12 x i8], [12 x i8]* @.str.1, i64 0, i64 0), double* %3, double* %4, double* %5)
  %17 = load double, double* %4, align 8
  %18 = load double, double* %4, align 8
  %19 = fmul double %17, %18
  %20 = load double, double* %3, align 8
  %21 = fmul double 4.000000e+00, %20
  %22 = load double, double* %5, align 8
  %23 = fmul double %21, %22
  %24 = fsub double %19, %23
  %25 = fcmp ogt double %24, 0.000000e+00
  br i1 %25, label %26, label %60

26:                                               ; preds = %15
  %27 = load double, double* %4, align 8
  %28 = fneg double %27
  %29 = load double, double* %4, align 8
  %30 = load double, double* %4, align 8
  %31 = fmul double %29, %30
  %32 = load double, double* %3, align 8
  %33 = fmul double 4.000000e+00, %32
  %34 = load double, double* %5, align 8
  %35 = fmul double %33, %34
  %36 = fsub double %31, %35
  %37 = call double @sqrt(double %36) #3
  %38 = fadd double %28, %37
  %39 = load double, double* %3, align 8
  %40 = fmul double 2.000000e+00, %39
  %41 = fdiv double %38, %40
  store double %41, double* %6, align 8
  %42 = load double, double* %4, align 8
  %43 = fneg double %42
  %44 = load double, double* %4, align 8
  %45 = load double, double* %4, align 8
  %46 = fmul double %44, %45
  %47 = load double, double* %3, align 8
  %48 = fmul double 4.000000e+00, %47
  %49 = load double, double* %5, align 8
  %50 = fmul double %48, %49
  %51 = fsub double %46, %50
  %52 = call double @sqrt(double %51) #3
  %53 = fsub double %43, %52
  %54 = load double, double* %3, align 8
  %55 = fmul double 2.000000e+00, %54
  %56 = fdiv double %53, %55
  store double %56, double* %7, align 8
  %57 = load double, double* %6, align 8
  %58 = load double, double* %7, align 8
  %59 = call i32 (i8*, ...) @printf(i8* getelementptr inbounds ([19 x i8], [19 x i8]* @.str.2, i64 0, i64 0), double %57, double %58)
  br label %129

60:                                               ; preds = %15
  %61 = load double, double* %4, align 8
  %62 = load double, double* %4, align 8
  %63 = fmul double %61, %62
  %64 = load double, double* %3, align 8
  %65 = fmul double 4.000000e+00, %64
  %66 = load double, double* %5, align 8
  %67 = fmul double %65, %66
  %68 = fsub double %63, %67
  %69 = fcmp oeq double %68, 0.000000e+00
  br i1 %69, label %70, label %104

70:                                               ; preds = %60
  %71 = load double, double* %4, align 8
  %72 = fneg double %71
  %73 = load double, double* %4, align 8
  %74 = load double, double* %4, align 8
  %75 = fmul double %73, %74
  %76 = load double, double* %3, align 8
  %77 = fmul double 4.000000e+00, %76
  %78 = load double, double* %5, align 8
  %79 = fmul double %77, %78
  %80 = fsub double %75, %79
  %81 = call double @sqrt(double %80) #3
  %82 = fadd double %72, %81
  %83 = load double, double* %3, align 8
  %84 = fmul double 2.000000e+00, %83
  %85 = fdiv double %82, %84
  store double %85, double* %6, align 8
  %86 = load double, double* %4, align 8
  %87 = fneg double %86
  %88 = load double, double* %4, align 8
  %89 = load double, double* %4, align 8
  %90 = fmul double %88, %89
  %91 = load double, double* %3, align 8
  %92 = fmul double 4.000000e+00, %91
  %93 = load double, double* %5, align 8
  %94 = fmul double %92, %93
  %95 = fsub double %90, %94
  %96 = call double @sqrt(double %95) #3
  %97 = fsub double %87, %96
  %98 = load double, double* %3, align 8
  %99 = fmul double 2.000000e+00, %98
  %100 = fdiv double %97, %99
  store double %100, double* %7, align 8
  %101 = load double, double* %6, align 8
  %102 = load double, double* %7, align 8
  %103 = call i32 (i8*, ...) @printf(i8* getelementptr inbounds ([13 x i8], [13 x i8]* @.str.3, i64 0, i64 0), double %101, double %102)
  br label %128

104:                                              ; preds = %60
  %105 = load double, double* %4, align 8
  %106 = load double, double* %4, align 8
  %107 = fmul double %105, %106
  %108 = load double, double* %3, align 8
  %109 = fmul double 4.000000e+00, %108
  %110 = load double, double* %5, align 8
  %111 = fmul double %109, %110
  %112 = fsub double %107, %111
  %113 = fneg double %112
  %114 = call double @sqrt(double %113) #3
  %115 = load double, double* %3, align 8
  %116 = fmul double 2.000000e+00, %115
  %117 = fdiv double %114, %116
  store double %117, double* %9, align 8
  %118 = load double, double* %4, align 8
  %119 = fneg double %118
  %120 = load double, double* %3, align 8
  %121 = fmul double 2.000000e+00, %120
  %122 = fdiv double %119, %121
  store double %122, double* %6, align 8
  %123 = load double, double* %6, align 8
  %124 = load double, double* %9, align 8
  %125 = load double, double* %6, align 8
  %126 = load double, double* %9, align 8
  %127 = call i32 (i8*, ...) @printf(i8* getelementptr inbounds ([33 x i8], [33 x i8]* @.str.4, i64 0, i64 0), double %123, double %124, double %125, double %126)
  br label %128

128:                                              ; preds = %104, %70
  br label %129

129:                                              ; preds = %128, %26
  br label %11

130:                                              ; preds = %11
  ret i32 0
}

declare dso_local i32 @__isoc99_scanf(i8*, ...) #1

; Function Attrs: nounwind
declare dso_local double @sqrt(double) #2

declare dso_local i32 @printf(i8*, ...) #1


!llvm.module.flags = !{!0}
!llvm.ident = !{!1}

!0 = !{i32 1, !"wchar_size", i32 4}
!1 = !{!"clang version 10.0.0-4ubuntu1 "}
